target datalayout = "e-m:e-p270:32:32-p271:32:32-p272:64:64-i64:64-i128:128-f80:128-n8:16:32:64-S128"
target triple = "x86_64-pc-linux-gnu"

%struct._structmodulestate = type { ptr, ptr, ptr, ptr }

@.str.56 = private unnamed_addr constant [33 x i8] c"required argument is not a float\00", align 1

; Function Attrs: nounwind uwtable
define internal i32 @np_double(ptr noundef %0, ptr noundef %1, ptr noundef %2, ptr noundef %3) #0 {
  %5 = alloca i32, align 4
  %6 = alloca ptr, align 8
  %7 = alloca ptr, align 8
  %8 = alloca ptr, align 8
  %9 = alloca ptr, align 8
  %10 = alloca double, align 8
  %11 = alloca i32, align 4
  store ptr %0, ptr %6, align 8, !tbaa !8
  store ptr %1, ptr %7, align 8, !tbaa !43
  store ptr %2, ptr %8, align 8, !tbaa !3
  store ptr %3, ptr %9, align 8, !tbaa !49
  call void @llvm.lifetime.start.p0(i64 8, ptr %10) #8
  %12 = load ptr, ptr %8, align 8, !tbaa !3
  %13 = call double @PyFloat_AsDouble(ptr noundef %12)
  store double %13, ptr %10, align 8, !tbaa !99
  %14 = load double, ptr %10, align 8, !tbaa !99
  %15 = fcmp oeq double %14, -1.000000e+00
  br i1 %15, label %16, label %23

16:                                               ; preds = %4
  %17 = call ptr @PyErr_Occurred()
  %18 = icmp ne ptr %17, null
  br i1 %18, label %19, label %23

19:                                               ; preds = %16
  %20 = load ptr, ptr %6, align 8, !tbaa !8
  %21 = getelementptr inbounds nuw %struct._structmodulestate, ptr %20, i32 0, i32 3
  %22 = load ptr, ptr %21, align 8, !tbaa !15
  call void @PyErr_SetString(ptr noundef %22, ptr noundef @.str.56)
  store i32 -1, ptr %5, align 4
  store i32 1, ptr %11, align 4
  br label %25

23:                                               ; preds = %16, %4
  %24 = load ptr, ptr %7, align 8, !tbaa !43
  call void @llvm.memcpy.p0.p0.i64(ptr align 1 %24, ptr align 8 %10, i64 8, i1 false)
  store i32 0, ptr %5, align 4
  store i32 1, ptr %11, align 4
  br label %25

25:                                               ; preds = %23, %19
  call void @llvm.lifetime.end.p0(i64 8, ptr %10) #8
  %26 = load i32, ptr %5, align 4
  ret i32 %26
}